; ModuleID = 'source-C-CXX/3/1167.cpp'
source_filename = "source-C-CXX/3/1167.cpp"
target datalayout = "e-m:e-p270:32:32-p271:32:32-p272:64:64-i64:64-f80:128-n8:16:32:64-S128"
target triple = "x86_64-pc-linux-gnu"

%"class.std::ios_base::Init" = type { i8 }
%"class.std::basic_istream" = type { i32 (...)**, i64, %"class.std::basic_ios" }
%"class.std::basic_ios" = type { %"class.std::ios_base", %"class.std::basic_ostream"*, i8, i8, %"class.std::basic_streambuf"*, %"class.std::ctype"*, %"class.std::num_put"*, %"class.std::num_get"* }
%"class.std::ios_base" = type { i32 (...)**, i64, i64, i32, i32, i32, %"struct.std::ios_base::_Callback_list"*, %"struct.std::ios_base::_Words", [8 x %"struct.std::ios_base::_Words"], i32, %"struct.std::ios_base::_Words"*, %"class.std::locale" }
%"struct.std::ios_base::_Callback_list" = type { %"struct.std::ios_base::_Callback_list"*, void (i32, %"class.std::ios_base"*, i32)*, i32, i32 }
%"struct.std::ios_base::_Words" = type { i8*, i64 }
%"class.std::locale" = type { %"class.std::locale::_Impl"* }
%"class.std::locale::_Impl" = type { i32, %"class.std::locale::facet"**, i64, %"class.std::locale::facet"**, i8** }
%"class.std::locale::facet" = type <{ i32 (...)**, i32, [4 x i8] }>
%"class.std::basic_ostream" = type { i32 (...)**, %"class.std::basic_ios" }
%"class.std::basic_streambuf" = type { i32 (...)**, i8*, i8*, i8*, i8*, i8*, i8*, %"class.std::locale" }
%"class.std::ctype" = type <{ %"class.std::locale::facet.base", [4 x i8], %struct.__locale_struct*, i8, [7 x i8], i32*, i32*, i16*, i8, [256 x i8], [256 x i8], i8, [6 x i8] }>
%"class.std::locale::facet.base" = type <{ i32 (...)**, i32 }>
%struct.__locale_struct = type { [13 x %struct.__locale_data*], i16*, i32*, i32*, [13 x i8*] }
%struct.__locale_data = type opaque
%"class.std::num_put" = type { %"class.std::locale::facet.base", [4 x i8] }
%"class.std::num_get" = type { %"class.std::locale::facet.base", [4 x i8] }

@_ZStL8__ioinit = internal global %"class.std::ios_base::Init" zeroinitializer, align 1
@__dso_handle = external hidden global i8
@_ZSt3cin = external global %"class.std::basic_istream", align 8
@_ZSt4cout = external global %"class.std::basic_ostream", align 8
@llvm.global_ctors = appending global [1 x { i32, void ()*, i8* }] [{ i32, void ()*, i8* } { i32 65535, void ()* @_GLOBAL__sub_I_1167.cpp, i8* null }]

declare void @_ZNSt8ios_base4InitC1Ev(%"class.std::ios_base::Init"* nonnull align 1 dereferenceable(1)) unnamed_addr #0

; Function Attrs: nounwind
declare void @_ZNSt8ios_base4InitD1Ev(%"class.std::ios_base::Init"* nonnull align 1 dereferenceable(1)) unnamed_addr #1

; Function Attrs: nofree nounwind
declare i32 @__cxa_atexit(void (i8*)*, i8*, i8*) local_unnamed_addr #2

; Function Attrs: mustprogress norecurse sspstrong uwtable
define dso_local i32 @main() local_unnamed_addr #3 {
  %1 = alloca [103 x [103 x i32]], align 16
  %2 = alloca i32, align 4
  %3 = alloca i32, align 4
  %4 = bitcast [103 x [103 x i32]]* %1 to i8*
  call void @llvm.lifetime.start.p0i8(i64 42436, i8* nonnull %4) #7
  %5 = bitcast i32* %2 to i8*
  call void @llvm.lifetime.start.p0i8(i64 4, i8* nonnull %5) #7
  %6 = bitcast i32* %3 to i8*
  call void @llvm.lifetime.start.p0i8(i64 4, i8* nonnull %6) #7
  %7 = call nonnull align 8 dereferenceable(16) %"class.std::basic_istream"* @_ZNSirsERi(%"class.std::basic_istream"* nonnull align 8 dereferenceable(16) @_ZSt3cin, i32* nonnull align 4 dereferenceable(4) %2)
  %8 = call nonnull align 8 dereferenceable(16) %"class.std::basic_istream"* @_ZNSirsERi(%"class.std::basic_istream"* nonnull align 8 dereferenceable(16) %7, i32* nonnull align 4 dereferenceable(4) %3)
  %9 = load i32, i32* %2, align 4, !tbaa !5
  %10 = icmp sgt i32 %9, 0
  %11 = load i32, i32* %3, align 4, !tbaa !5
  %12 = icmp sgt i32 %11, 0
  %13 = select i1 %10, i1 %12, i1 false
  br i1 %13, label %14, label %19

14:                                               ; preds = %0, %27
  %15 = phi i32 [ %28, %27 ], [ %9, %0 ]
  %16 = phi i32 [ %29, %27 ], [ %11, %0 ]
  %17 = phi i64 [ %30, %27 ], [ 0, %0 ]
  %18 = icmp sgt i32 %16, 0
  br i1 %18, label %33, label %27

19:                                               ; preds = %27, %0
  %20 = phi i32 [ %11, %0 ], [ %29, %27 ]
  %21 = phi i32 [ %9, %0 ], [ %28, %27 ]
  %22 = add i32 %21, -1
  %23 = add i32 %22, %20
  %24 = icmp sgt i32 %23, 0
  br i1 %24, label %41, label %104

25:                                               ; preds = %33
  %26 = load i32, i32* %2, align 4, !tbaa !5
  br label %27

27:                                               ; preds = %25, %14
  %28 = phi i32 [ %26, %25 ], [ %15, %14 ]
  %29 = phi i32 [ %38, %25 ], [ %16, %14 ]
  %30 = add nuw nsw i64 %17, 1
  %31 = sext i32 %28 to i64
  %32 = icmp slt i64 %30, %31
  br i1 %32, label %14, label %19, !llvm.loop !9

33:                                               ; preds = %14, %33
  %34 = phi i64 [ %37, %33 ], [ 0, %14 ]
  %35 = getelementptr inbounds [103 x [103 x i32]], [103 x [103 x i32]]* %1, i64 0, i64 %17, i64 %34
  %36 = call nonnull align 8 dereferenceable(16) %"class.std::basic_istream"* @_ZNSirsERi(%"class.std::basic_istream"* nonnull align 8 dereferenceable(16) @_ZSt3cin, i32* nonnull align 4 dereferenceable(4) %35)
  %37 = add nuw nsw i64 %34, 1
  %38 = load i32, i32* %3, align 4, !tbaa !5
  %39 = sext i32 %38 to i64
  %40 = icmp slt i64 %37, %39
  br i1 %40, label %33, label %25, !llvm.loop !12

41:                                               ; preds = %19, %95
  %42 = phi i32 [ %97, %95 ], [ %21, %19 ]
  %43 = phi i64 [ %96, %95 ], [ 0, %19 ]
  %44 = phi i64 [ %103, %95 ], [ 1, %19 ]
  br label %45

45:                                               ; preds = %93, %41
  %46 = phi i32 [ %42, %41 ], [ %94, %93 ]
  %47 = phi i64 [ 0, %41 ], [ %91, %93 ]
  %48 = sext i32 %46 to i64
  %49 = icmp slt i64 %47, %48
  br i1 %49, label %50, label %90

50:                                               ; preds = %45
  %51 = sub nsw i64 %43, %47
  %52 = load i32, i32* %3, align 4, !tbaa !5
  %53 = sext i32 %52 to i64
  %54 = icmp slt i64 %51, %53
  br i1 %54, label %55, label %90

55:                                               ; preds = %50
  %56 = getelementptr inbounds [103 x [103 x i32]], [103 x [103 x i32]]* %1, i64 0, i64 %47, i64 %43
  %57 = sub nsw i64 0, %47
  %58 = getelementptr inbounds i32, i32* %56, i64 %57
  %59 = load i32, i32* %58, align 4, !tbaa !5
  %60 = call nonnull align 8 dereferenceable(8) %"class.std::basic_ostream"* @_ZNSolsEi(%"class.std::basic_ostream"* nonnull align 8 dereferenceable(8) @_ZSt4cout, i32 %59)
  %61 = bitcast %"class.std::basic_ostream"* %60 to i8**
  %62 = load i8*, i8** %61, align 8, !tbaa !13
  %63 = getelementptr i8, i8* %62, i64 -24
  %64 = bitcast i8* %63 to i64*
  %65 = load i64, i64* %64, align 8
  %66 = bitcast %"class.std::basic_ostream"* %60 to i8*
  %67 = add nsw i64 %65, 240
  %68 = getelementptr inbounds i8, i8* %66, i64 %67
  %69 = bitcast i8* %68 to %"class.std::ctype"**
  %70 = load %"class.std::ctype"*, %"class.std::ctype"** %69, align 8, !tbaa !15
  %71 = icmp eq %"class.std::ctype"* %70, null
  br i1 %71, label %72, label %73

72:                                               ; preds = %55
  call void @_ZSt16__throw_bad_castv() #8
  unreachable

73:                                               ; preds = %55
  %74 = getelementptr inbounds %"class.std::ctype", %"class.std::ctype"* %70, i64 0, i32 8
  %75 = load i8, i8* %74, align 8, !tbaa !19
  %76 = icmp eq i8 %75, 0
  br i1 %76, label %80, label %77

77:                                               ; preds = %73
  %78 = getelementptr inbounds %"class.std::ctype", %"class.std::ctype"* %70, i64 0, i32 9, i64 10
  %79 = load i8, i8* %78, align 1, !tbaa !21
  br label %86

80:                                               ; preds = %73
  call void @_ZNKSt5ctypeIcE13_M_widen_initEv(%"class.std::ctype"* nonnull align 8 dereferenceable(570) %70)
  %81 = bitcast %"class.std::ctype"* %70 to i8 (%"class.std::ctype"*, i8)***
  %82 = load i8 (%"class.std::ctype"*, i8)**, i8 (%"class.std::ctype"*, i8)*** %81, align 8, !tbaa !13
  %83 = getelementptr inbounds i8 (%"class.std::ctype"*, i8)*, i8 (%"class.std::ctype"*, i8)** %82, i64 6
  %84 = load i8 (%"class.std::ctype"*, i8)*, i8 (%"class.std::ctype"*, i8)** %83, align 8
  %85 = call signext i8 %84(%"class.std::ctype"* nonnull align 8 dereferenceable(570) %70, i8 signext 10)
  br label %86

86:                                               ; preds = %77, %80
  %87 = phi i8 [ %79, %77 ], [ %85, %80 ]
  %88 = call nonnull align 8 dereferenceable(8) %"class.std::basic_ostream"* @_ZNSo3putEc(%"class.std::basic_ostream"* nonnull align 8 dereferenceable(8) %60, i8 signext %87)
  %89 = call nonnull align 8 dereferenceable(8) %"class.std::basic_ostream"* @_ZNSo5flushEv(%"class.std::basic_ostream"* nonnull align 8 dereferenceable(8) %88)
  br label %90

90:                                               ; preds = %45, %50, %86
  %91 = add nuw nsw i64 %47, 1
  %92 = icmp eq i64 %91, %44
  br i1 %92, label %95, label %93, !llvm.loop !22

93:                                               ; preds = %90
  %94 = load i32, i32* %2, align 4, !tbaa !5
  br label %45

95:                                               ; preds = %90
  %96 = add nuw nsw i64 %43, 1
  %97 = load i32, i32* %2, align 4, !tbaa !5
  %98 = load i32, i32* %3, align 4, !tbaa !5
  %99 = add i32 %97, -1
  %100 = add i32 %99, %98
  %101 = sext i32 %100 to i64
  %102 = icmp slt i64 %96, %101
  %103 = add nuw nsw i64 %44, 1
  br i1 %102, label %41, label %104, !llvm.loop !23

104:                                              ; preds = %95, %19
  call void @llvm.lifetime.end.p0i8(i64 4, i8* nonnull %6) #7
  call void @llvm.lifetime.end.p0i8(i64 4, i8* nonnull %5) #7
  call void @llvm.lifetime.end.p0i8(i64 42436, i8* nonnull %4) #7
  ret i32 0
}

; Function Attrs: argmemonly mustprogress nofree nosync nounwind willreturn
declare void @llvm.lifetime.start.p0i8(i64 immarg, i8* nocapture) #4

declare nonnull align 8 dereferenceable(16) %"class.std::basic_istream"* @_ZNSirsERi(%"class.std::basic_istream"* nonnull align 8 dereferenceable(16), i32* nonnull align 4 dereferenceable(4)) local_unnamed_addr #0

; Function Attrs: argmemonly mustprogress nofree nosync nounwind willreturn
declare void @llvm.lifetime.end.p0i8(i64 immarg, i8* nocapture) #4

declare nonnull align 8 dereferenceable(8) %"class.std::basic_ostream"* @_ZNSolsEi(%"class.std::basic_ostream"* nonnull align 8 dereferenceable(8), i32) local_unnamed_addr #0

declare nonnull align 8 dereferenceable(8) %"class.std::basic_ostream"* @_ZNSo3putEc(%"class.std::basic_ostream"* nonnull align 8 dereferenceable(8), i8 signext) local_unnamed_addr #0

declare nonnull align 8 dereferenceable(8) %"class.std::basic_ostream"* @_ZNSo5flushEv(%"class.std::basic_ostream"* nonnull align 8 dereferenceable(8)) local_unnamed_addr #0

; Function Attrs: noreturn
declare void @_ZSt16__throw_bad_castv() local_unnamed_addr #5

declare void @_ZNKSt5ctypeIcE13_M_widen_initEv(%"class.std::ctype"* nonnull align 8 dereferenceable(570)) local_unnamed_addr #0

; Function Attrs: sspstrong uwtable
define internal void @_GLOBAL__sub_I_1167.cpp() #6 section ".text.startup" {
  tail call void @_ZNSt8ios_base4InitC1Ev(%"class.std::ios_base::Init"* nonnull align 1 dereferenceable(1) @_ZStL8__ioinit)
  %1 = tail call i32 @__cxa_atexit(void (i8*)* bitcast (void (%"class.std::ios_base::Init"*)* @_ZNSt8ios_base4InitD1Ev to void (i8*)*), i8* getelementptr inbounds (%"class.std::ios_base::Init", %"class.std::ios_base::Init"* @_ZStL8__ioinit, i64 0, i32 0), i8* nonnull @__dso_handle) #7
  ret void
}


!llvm.module.flags = !{!0, !1, !2, !3}
!llvm.ident = !{!4}

!0 = !{i32 1, !"wchar_size", i32 4}
!1 = !{i32 7, !"PIC Level", i32 2}
!2 = !{i32 7, !"PIE Level", i32 2}
!3 = !{i32 7, !"uwtable", i32 1}
!4 = !{!"clang version 13.0.0"}
!5 = !{!6, !6, i64 0}
!6 = !{!"int", !7, i64 0}
!7 = !{!"omnipotent char", !8, i64 0}
!8 = !{!"Simple C++ TBAA"}
!9 = distinct !{!9, !10, !11}
!10 = !{!"llvm.loop.mustprogress"}
!11 = !{!"llvm.loop.unswitch.partial.disable"}
!12 = distinct !{!12, !10}
!13 = !{!14, !14, i64 0}
!14 = !{!"vtable pointer", !8, i64 0}
!15 = !{!16, !17, i64 240}
!16 = !{!"_ZTSSt9basic_iosIcSt11char_traitsIcEE", !17, i64 216, !7, i64 224, !18, i64 225, !17, i64 232, !17, i64 240, !17, i64 248, !17, i64 256}
!17 = !{!"any pointer", !7, i64 0}
!18 = !{!"bool", !7, i64 0}
!19 = !{!20, !7, i64 56}
!20 = !{!"_ZTSSt5ctypeIcE", !17, i64 16, !18, i64 24, !17, i64 32, !17, i64 40, !17, i64 48, !7, i64 56, !7, i64 57, !7, i64 313, !7, i64 569}
!21 = !{!7, !7, i64 0}
!22 = distinct !{!22, !10}
!23 = distinct !{!23, !10}
